; Function Attrs: nounwind uwtable
define ptr @PEM_read_PrivateKey_ex(ptr noundef %0, ptr noundef %1, ptr noundef %2, ptr noundef %3, ptr noundef %4, ptr noundef %5) local_unnamed_addr #0 {
  %7 = tail call ptr @BIO_s_file() #6
  %8 = tail call ptr @BIO_new(ptr noundef %7) #6
  %9 = icmp eq ptr %8, null
  br i1 %9, label %10, label %11

10:                                               ; preds = %6
  tail call void @ERR_new() #6
  tail call void @ERR_set_debug(ptr noundef nonnull @.str, i32 noundef 415, ptr noundef nonnull @__func__.PEM_read_PrivateKey_ex) #6
  tail call void (i32, i32, ptr, ...) @ERR_set_error(i32 noundef 9, i32 noundef 524295, ptr noundef null) #6
  br label %15

11:                                               ; preds = %6
  %12 = tail call i64 @BIO_ctrl(ptr noundef nonnull %8, i32 noundef 106, i64 noundef 0, ptr noundef %0) #6
  %13 = tail call fastcc ptr @pem_read_bio_key(ptr noundef nonnull %8, ptr noundef %1, ptr noundef %2, ptr noundef %3, ptr noundef %4, ptr noundef %5, i32 noundef 135)
  %14 = tail call i32 @BIO_free(ptr noundef nonnull %8) #6
  br label %15

15:                                               ; preds = %11, %10
  %.0 = phi ptr [ null, %10 ], [ %13, %11 ]
  ret ptr %.0
}